; Function Attrs: mustprogress nofree norecurse nosync nounwind willreturn memory(argmem: read) uwtable
define noundef range(i64 2, 4) i64 @_ZNK8QuantLib13HestonProcess7factorsEv(ptr nocapture noundef nonnull readonly align 8 dereferenceable(220) %this) unnamed_addr #13 align 2 {
entry:
  %discretization_ = getelementptr inbounds nuw i8, ptr %this, i64 216
  %0 = load i32, ptr %discretization_, align 8, !tbaa !69
  switch i32 %0, label %lor.rhs [
    i32 6, label %lor.end
    i32 8, label %lor.end
  ]

lor.rhs:                                          ; preds = %entry
  %cmp5 = icmp eq i32 %0, 7
  %1 = select i1 %cmp5, i64 3, i64 2
  br label %lor.end

lor.end:                                          ; preds = %entry, %entry, %lor.rhs
  %cond = phi i64 [ 3, %entry ], [ %1, %lor.rhs ], [ 3, %entry ]
  ret i64 %cond
}